target datalayout = "e-m:e-p270:32:32-p271:32:32-p272:64:64-i64:64-i128:128-f80:128-n8:16:32:64-S128"
target triple = "x86_64-pc-linux-gnu"

; Function Attrs: mustprogress nounwind uwtable
define void @_ZN10duckdb_hll16hllDenseRegHistoEPhPi(ptr noundef %0, ptr noundef %1) #0 {
  %3 = alloca ptr, align 8
  %4 = alloca ptr, align 8
  %5 = alloca i32, align 4
  %6 = alloca i64, align 8
  %7 = alloca ptr, align 8
  %8 = alloca i64, align 8
  %9 = alloca i64, align 8
  %10 = alloca i64, align 8
  %11 = alloca i64, align 8
  %12 = alloca i64, align 8
  store ptr %0, ptr %3, align 8, !tbaa !11
  store ptr %1, ptr %4, align 8, !tbaa !19
  call void @llvm.lifetime.start.p0(i64 4, ptr %5) #10
  store i32 0, ptr %5, align 4, !tbaa !7
  br label %13

13:                                               ; preds = %55, %2
  %14 = load i32, ptr %5, align 4, !tbaa !7
  %15 = icmp slt i32 %14, 4096
  br i1 %15, label %16, label %58

16:                                               ; preds = %13
  call void @llvm.lifetime.start.p0(i64 8, ptr %6) #10
  br label %17

17:                                               ; preds = %16
  call void @llvm.lifetime.start.p0(i64 8, ptr %7) #10
  %18 = load ptr, ptr %3, align 8, !tbaa !11
  store ptr %18, ptr %7, align 8, !tbaa !11
  call void @llvm.lifetime.start.p0(i64 8, ptr %8) #10
  %19 = load i32, ptr %5, align 4, !tbaa !7
  %20 = mul nsw i32 %19, 6
  %21 = sdiv i32 %20, 8
  %22 = sext i32 %21 to i64
  store i64 %22, ptr %8, align 8, !tbaa !9
  call void @llvm.lifetime.start.p0(i64 8, ptr %9) #10
  %23 = load i32, ptr %5, align 4, !tbaa !7
  %24 = mul nsw i32 %23, 6
  %25 = and i32 %24, 7
  %26 = sext i32 %25 to i64
  store i64 %26, ptr %9, align 8, !tbaa !9
  call void @llvm.lifetime.start.p0(i64 8, ptr %10) #10
  %27 = load i64, ptr %9, align 8, !tbaa !9
  %28 = sub i64 8, %27
  store i64 %28, ptr %10, align 8, !tbaa !9
  call void @llvm.lifetime.start.p0(i64 8, ptr %11) #10
  %29 = load ptr, ptr %7, align 8, !tbaa !11
  %30 = load i64, ptr %8, align 8, !tbaa !9
  %31 = getelementptr inbounds nuw i8, ptr %29, i64 %30
  %32 = load i8, ptr %31, align 1, !tbaa !15
  %33 = zext i8 %32 to i64
  store i64 %33, ptr %11, align 8, !tbaa !9
  call void @llvm.lifetime.start.p0(i64 8, ptr %12) #10
  %34 = load ptr, ptr %7, align 8, !tbaa !11
  %35 = load i64, ptr %8, align 8, !tbaa !9
  %36 = add i64 %35, 1
  %37 = getelementptr inbounds nuw i8, ptr %34, i64 %36
  %38 = load i8, ptr %37, align 1, !tbaa !15
  %39 = zext i8 %38 to i64
  store i64 %39, ptr %12, align 8, !tbaa !9
  %40 = load i64, ptr %11, align 8, !tbaa !9
  %41 = load i64, ptr %9, align 8, !tbaa !9
  %42 = lshr i64 %40, %41
  %43 = load i64, ptr %12, align 8, !tbaa !9
  %44 = load i64, ptr %10, align 8, !tbaa !9
  %45 = shl i64 %43, %44
  %46 = or i64 %42, %45
  %47 = and i64 %46, 63
  store i64 %47, ptr %6, align 8, !tbaa !9
  call void @llvm.lifetime.end.p0(i64 8, ptr %12) #10
  call void @llvm.lifetime.end.p0(i64 8, ptr %11) #10
  call void @llvm.lifetime.end.p0(i64 8, ptr %10) #10
  call void @llvm.lifetime.end.p0(i64 8, ptr %9) #10
  call void @llvm.lifetime.end.p0(i64 8, ptr %8) #10
  call void @llvm.lifetime.end.p0(i64 8, ptr %7) #10
  br label %48

48:                                               ; preds = %17
  br label %49

49:                                               ; preds = %48
  %50 = load ptr, ptr %4, align 8, !tbaa !19
  %51 = load i64, ptr %6, align 8, !tbaa !9
  %52 = getelementptr inbounds nuw i32, ptr %50, i64 %51
  %53 = load i32, ptr %52, align 4, !tbaa !7
  %54 = add nsw i32 %53, 1
  store i32 %54, ptr %52, align 4, !tbaa !7
  call void @llvm.lifetime.end.p0(i64 8, ptr %6) #10
  br label %55

55:                                               ; preds = %49
  %56 = load i32, ptr %5, align 4, !tbaa !7
  %57 = add nsw i32 %56, 1
  store i32 %57, ptr %5, align 4, !tbaa !7
  br label %13, !llvm.loop !21

58:                                               ; preds = %13
  call void @llvm.lifetime.end.p0(i64 4, ptr %5) #10
  ret void
}