; Function Attrs: mustprogress nofree norecurse nosync nounwind memory(argmem: readwrite) uwtable
define void @_ZN10duckdb_hll16hllDenseRegHistoEPhPi(ptr noundef readonly captures(none) %0, ptr noundef captures(none) %1) local_unnamed_addr #2 {
  br label %3

3:                                                ; preds = %2, %3
  %.015 = phi i32 [ 0, %2 ], [ %23, %3 ]
  %4 = mul nuw nsw i32 %.015, 6
  %5 = lshr i32 %4, 3
  %6 = zext nneg i32 %5 to i64
  %7 = and i32 %4, 6
  %8 = zext nneg i32 %7 to i64
  %9 = sub nuw nsw i64 8, %8
  %10 = getelementptr inbounds nuw i8, ptr %0, i64 %6
  %11 = load i8, ptr %10, align 1, !tbaa !9
  %12 = zext i8 %11 to i64
  %13 = getelementptr inbounds nuw i8, ptr %10, i64 1
  %14 = load i8, ptr %13, align 1, !tbaa !9
  %15 = zext i8 %14 to i64
  %16 = lshr i64 %12, %8
  %17 = shl nuw nsw i64 %15, %9
  %18 = or i64 %17, %16
  %19 = and i64 %18, 63
  %20 = getelementptr inbounds nuw i32, ptr %1, i64 %19
  %21 = load i32, ptr %20, align 4, !tbaa !11
  %22 = add nsw i32 %21, 1
  store i32 %22, ptr %20, align 4, !tbaa !11
  %23 = add nuw nsw i32 %.015, 1
  %exitcond.not = icmp eq i32 %23, 4096
  br i1 %exitcond.not, label %24, label %3, !llvm.loop !13

24:                                               ; preds = %3
  ret void
}